target datalayout = "e-m:e-p270:32:32-p271:32:32-p272:64:64-i64:64-i128:128-f80:128-n8:16:32:64-S128"
target triple = "x86_64-pc-linux-gnu"

@proto_register_kpasswd.ett = internal global [3 x ptr] [ptr @ett_kpasswd, ptr @ett_ap_req_data, ptr @ett_krb_priv_message], align 16
@.str.20 = private unnamed_addr constant [11 x i8] c"MS Kpasswd\00", align 1
@.str.21 = private unnamed_addr constant [8 x i8] c"Kpasswd\00", align 1
@.str.22 = private unnamed_addr constant [8 x i8] c"kpasswd\00", align 1
@proto_kpasswd = internal global i32 0, align 4
@.str.23 = private unnamed_addr constant [10 x i8] c"desegment\00", align 1
@.str.24 = private unnamed_addr constant [68 x i8] c"Reassemble Kpasswd over TCP messages spanning multiple TCP segments\00", align 1
@.str.25 = private unnamed_addr constant [208 x i8] c"Whether the Kpasswd dissector should reassemble messages spanning multiple TCP segments. To use this option, you must also enable \22Allow subdissectors to reassemble TCP streams\22 in the TCP protocol settings.\00", align 1
@kpasswd_desegment = internal global i8 1, align 1
@.str.26 = private unnamed_addr constant [12 x i8] c"kpasswd.udp\00", align 1
@kpasswd_handle_udp = internal global ptr null, align 8
@.str.27 = private unnamed_addr constant [12 x i8] c"kpasswd.tcp\00", align 1
@kpasswd_handle_tcp = internal global ptr null, align 8

; Function Attrs: null_pointer_is_valid sspstrong uwtable
define hidden void @proto_register_kpasswd() #0 {
  %1 = alloca ptr, align 8
  call void @llvm.lifetime.start.p0(i64 8, ptr %1) #3
  %2 = call i32 @proto_register_protocol(ptr noundef @.str.20, ptr noundef @.str.21, ptr noundef @.str.22)
  store i32 %2, ptr @proto_kpasswd, align 4
  %3 = load i32, ptr @proto_kpasswd, align 4
  call void @proto_register_field_array(i32 noundef %3, ptr noundef @proto_register_kpasswd.hf, i32 noundef 8)
  call void @proto_register_subtree_array(ptr noundef @proto_register_kpasswd.ett, i32 noundef 3)
  %4 = load i32, ptr @proto_kpasswd, align 4
  %5 = call ptr @prefs_register_protocol(i32 noundef %4, ptr noundef null)
  store ptr %5, ptr %1, align 8
  %6 = load ptr, ptr %1, align 8
  call void @prefs_register_bool_preference(ptr noundef %6, ptr noundef @.str.23, ptr noundef @.str.24, ptr noundef @.str.25, ptr noundef @kpasswd_desegment)
  %7 = load i32, ptr @proto_kpasswd, align 4
  %8 = call ptr @register_dissector(ptr noundef @.str.26, ptr noundef @dissect_kpasswd_udp, i32 noundef %7)
  store ptr %8, ptr @kpasswd_handle_udp, align 8
  %9 = load i32, ptr @proto_kpasswd, align 4
  %10 = call ptr @register_dissector(ptr noundef @.str.27, ptr noundef @dissect_kpasswd_tcp, i32 noundef %9)
  store ptr %10, ptr @kpasswd_handle_tcp, align 8
  call void @llvm.lifetime.end.p0(i64 8, ptr %1) #3
  ret void
}