; Function Attrs: null_pointer_is_valid sspstrong uwtable
define hidden void @proto_register_kpasswd() local_unnamed_addr #0 {
  %1 = tail call i32 @proto_register_protocol(ptr noundef nonnull @.str.20, ptr noundef nonnull @.str.21, ptr noundef nonnull @.str.22)
  store i32 %1, ptr @proto_kpasswd, align 4
  tail call void @proto_register_field_array(i32 noundef %1, ptr noundef nonnull @proto_register_kpasswd.hf, i32 noundef 8)
  tail call void @proto_register_subtree_array(ptr noundef nonnull @proto_register_kpasswd.ett, i32 noundef 3)
  %2 = load i32, ptr @proto_kpasswd, align 4
  %3 = tail call ptr @prefs_register_protocol(i32 noundef %2, ptr noundef null)
  tail call void @prefs_register_bool_preference(ptr noundef %3, ptr noundef nonnull @.str.23, ptr noundef nonnull @.str.24, ptr noundef nonnull @.str.25, ptr noundef nonnull @kpasswd_desegment)
  %4 = load i32, ptr @proto_kpasswd, align 4
  %5 = tail call ptr @register_dissector(ptr noundef nonnull @.str.26, ptr noundef nonnull @dissect_kpasswd_udp, i32 noundef %4)
  store ptr %5, ptr @kpasswd_handle_udp, align 8
  %6 = load i32, ptr @proto_kpasswd, align 4
  %7 = tail call ptr @register_dissector(ptr noundef nonnull @.str.27, ptr noundef nonnull @dissect_kpasswd_tcp, i32 noundef %6)
  store ptr %7, ptr @kpasswd_handle_tcp, align 8
  ret void
}